target datalayout = "e-m:e-p270:32:32-p271:32:32-p272:64:64-i64:64-i128:128-f80:128-n8:16:32:64-S128"
target triple = "x86_64-pc-linux-gnu"

%struct.ccan_list_node = type { ptr, ptr }
%union.pthread_mutex_t = type { %struct.__pthread_mutex_s }
%struct.__pthread_mutex_s = type { i32, i32, i32, i32, i32, i16, i16, %struct.__pthread_internal_list }
%struct.__pthread_internal_list = type { ptr, ptr }
%struct.ccan_list_head = type { %struct.ccan_list_node }
%struct.rb_vm_struct = type { i64, %struct.anon.1, ptr, i64, %struct.ccan_list_head, i32, i8, i64, ptr, [5 x i64], i64, i64, i64, i64, i64, i64, i64, i64, i64, ptr, ptr, ptr, %struct.anon.5, ptr, i32, %struct.ccan_list_head, %union.pthread_mutex_t, i64, i64, i64, i64, i32, %struct.anon.6, ptr, ptr, ptr, ptr, ptr, ptr, ptr, ptr, i64, [1023 x ptr], %struct.anon.7 }
%struct.anon.1 = type { %struct.ccan_list_head, i32, i32, ptr, ptr, %struct.anon.2, %struct.anon.4 }
%struct.anon.2 = type { %union.pthread_mutex_t, ptr, i32, %union.pthread_cond_t, i8 }
%union.pthread_cond_t = type { %struct.__pthread_cond_s }
%struct.__pthread_cond_s = type { %union.__atomic_wide_counter, %union.__atomic_wide_counter, [2 x i32], [2 x i32], i32, i32, [2 x i32] }
%union.__atomic_wide_counter = type { i64 }
%struct.anon.4 = type { %union.pthread_mutex_t, ptr, i8, %union.pthread_cond_t, i32, i32, i32, i32, %struct.ccan_list_head, i32, %struct.ccan_list_head, %struct.ccan_list_head, %struct.ccan_list_head, i8, %union.pthread_cond_t, %union.pthread_cond_t, i8, i32, i32 }
%struct.anon.5 = type { [65 x i64] }
%struct.anon.6 = type { ptr, ptr }
%struct.anon.7 = type { i64, i64, i64, i64 }
%struct.st_table = type { i8, i8, i8, i32, ptr, i64, ptr, i64, i64, ptr }

@ruby_vm_constant_cache_invalidations = hidden global i64 0, align 8
@ruby_current_vm_ptr = hidden global ptr null, align 8

; Function Attrs: inlinehint nounwind sspstrong uwtable
define internal ptr @rb_current_vm() #2 {
  %1 = load ptr, ptr @ruby_current_vm_ptr, align 8, !tbaa !274
  ret ptr %1
}

; Function Attrs: nounwind sspstrong uwtable
define dso_local void @rb_clear_constant_cache_for_id(i64 noundef %0) #0 {
  %2 = alloca i64, align 8
  %3 = alloca i64, align 8
  %4 = alloca ptr, align 8
  %5 = alloca ptr, align 8
  store i64 %0, ptr %2, align 8, !tbaa !31
  call void @llvm.lifetime.start.p0(i64 8, ptr %3) #21
  call void @llvm.lifetime.start.p0(i64 8, ptr %4) #21
  %6 = call ptr @rb_current_vm()
  store ptr %6, ptr %4, align 8, !tbaa !274
  %7 = load ptr, ptr %4, align 8, !tbaa !274
  %8 = getelementptr inbounds nuw %struct.rb_vm_struct, ptr %7, i32 0, i32 40
  %9 = load ptr, ptr %8, align 8, !tbaa !275
  %10 = load i64, ptr %2, align 8, !tbaa !31
  %11 = call i32 @rb_id_table_lookup(ptr noundef %9, i64 noundef %10, ptr noundef %3)
  %12 = icmp ne i32 %11, 0
  br i1 %12, label %13, label %23

13:                                               ; preds = %1
  call void @llvm.lifetime.start.p0(i64 8, ptr %5) #21
  %14 = load i64, ptr %3, align 8, !tbaa !31
  %15 = inttoptr i64 %14 to ptr
  store ptr %15, ptr %5, align 8, !tbaa !289
  %16 = load ptr, ptr %5, align 8, !tbaa !289
  %17 = call i32 @rb_st_foreach(ptr noundef %16, ptr noundef @rb_clear_constant_cache_for_id_i, i64 noundef 0)
  %18 = load ptr, ptr %5, align 8, !tbaa !289
  %19 = getelementptr inbounds nuw %struct.st_table, ptr %18, i32 0, i32 5
  %20 = load i64, ptr %19, align 8, !tbaa !290
  %21 = load i64, ptr @ruby_vm_constant_cache_invalidations, align 8, !tbaa !137
  %22 = add i64 %21, %20
  store i64 %22, ptr @ruby_vm_constant_cache_invalidations, align 8, !tbaa !137
  call void @llvm.lifetime.end.p0(i64 8, ptr %5) #21
  br label %23

23:                                               ; preds = %13, %1
  %24 = load i64, ptr %2, align 8, !tbaa !31
  call void @rb_yjit_constant_state_changed(i64 noundef %24)
  call void @llvm.lifetime.end.p0(i64 8, ptr %4) #21
  call void @llvm.lifetime.end.p0(i64 8, ptr %3) #21
  ret void
}