; Function Attrs: nounwind sspstrong uwtable
define dso_local void @rb_clear_constant_cache_for_id(i64 noundef %0) local_unnamed_addr #2 {
  %2 = alloca i64, align 8
  call void @llvm.lifetime.start.p0(i64 8, ptr nonnull %2) #21
  %3 = load ptr, ptr @ruby_current_vm_ptr, align 8, !tbaa !230
  %4 = getelementptr inbounds nuw i8, ptr %3, i64 1368
  %5 = load ptr, ptr %4, align 8, !tbaa !280
  %6 = call i32 @rb_id_table_lookup(ptr noundef %5, i64 noundef %0, ptr noundef nonnull %2) #21
  %.not = icmp eq i32 %6, 0
  br i1 %.not, label %15, label %7

7:                                                ; preds = %1
  %8 = load i64, ptr %2, align 8, !tbaa !7
  %9 = inttoptr i64 %8 to ptr
  %10 = call i32 @rb_st_foreach(ptr noundef %9, ptr noundef nonnull @rb_clear_constant_cache_for_id_i, i64 noundef 0) #21
  %11 = getelementptr inbounds nuw i8, ptr %9, i64 16
  %12 = load i64, ptr %11, align 8, !tbaa !291
  %13 = load i64, ptr @ruby_vm_constant_cache_invalidations, align 8, !tbaa !118
  %14 = add i64 %13, %12
  store i64 %14, ptr @ruby_vm_constant_cache_invalidations, align 8, !tbaa !118
  br label %15

15:                                               ; preds = %7, %1
  call void @rb_yjit_constant_state_changed(i64 noundef %0) #21
  call void @llvm.lifetime.end.p0(i64 8, ptr nonnull %2) #21
  ret void
}